
firmware.o:     file format elf32-littleriscv


Disassembly of section .text.startup:

00000000 <main>:
   0:	ff010113          	addi	sp,sp,-16
   4:	00200593          	li	a1,2
   8:	00100513          	li	a0,1
   c:	00112623          	sw	ra,12(sp)
  10:	00000097          	auipc	ra,0x0
  14:	000080e7          	jalr	ra # 10 <main+0x10>
  18:	00200593          	li	a1,2
  1c:	00100513          	li	a0,1
  20:	00000097          	auipc	ra,0x0
  24:	000080e7          	jalr	ra # 20 <main+0x20>
  28:	00200593          	li	a1,2
  2c:	00058513          	mv	a0,a1
  30:	00000097          	auipc	ra,0x0
  34:	000080e7          	jalr	ra # 30 <main+0x30>
  38:	00200593          	li	a1,2
  3c:	00300513          	li	a0,3
  40:	00000097          	auipc	ra,0x0
  44:	000080e7          	jalr	ra # 40 <main+0x40>
  48:	00200593          	li	a1,2
  4c:	00500513          	li	a0,5
  50:	00000097          	auipc	ra,0x0
  54:	000080e7          	jalr	ra # 50 <main+0x50>
  58:	00200593          	li	a1,2
  5c:	00800513          	li	a0,8
  60:	00000097          	auipc	ra,0x0
  64:	000080e7          	jalr	ra # 60 <main+0x60>
  68:	00200593          	li	a1,2
  6c:	00d00513          	li	a0,13
  70:	00000097          	auipc	ra,0x0
  74:	000080e7          	jalr	ra # 70 <main+0x70>
  78:	00200593          	li	a1,2
  7c:	01500513          	li	a0,21
  80:	00000097          	auipc	ra,0x0
  84:	000080e7          	jalr	ra # 80 <main+0x80>

00000088 <.L2>:
  88:	0000006f          	j	88 <.L2>
